target datalayout = "e-m:e-p270:32:32-p271:32:32-p272:64:64-i64:64-i128:128-f80:128-n8:16:32:64-S128"
target triple = "x86_64-pc-linux-gnu"

%struct.NVGparams = type { ptr, i32, ptr, ptr, ptr, ptr, ptr, ptr, ptr, ptr, ptr, ptr, ptr, ptr }
%struct.GLNVGcontext = type { %struct.GLNVGshader, ptr, [2 x float], i32, i32, i32, i32, i32, i32, i32, i32, ptr, i32, i32, ptr, i32, i32, ptr, i32, i32, ptr, i32, i32, i32, i32, i32, i32, i32, %struct.GLNVGblend }
%struct.GLNVGshader = type { i32, i32, i32, [3 x i32] }
%struct.GLNVGblend = type { i32, i32, i32, i32 }

; Function Attrs: mustprogress uwtable
define hidden ptr @nvgCreateGL3(i32 noundef %0) #4 {
  %2 = alloca ptr, align 8
  %3 = alloca i32, align 4
  %4 = alloca %struct.NVGparams, align 8
  %5 = alloca ptr, align 8
  %6 = alloca ptr, align 8
  store i32 %0, ptr %3, align 4
  store ptr null, ptr %5, align 8
  %7 = call noalias ptr @malloc(i64 noundef 176) #21
  store ptr %7, ptr %6, align 8
  %8 = load ptr, ptr %6, align 8
  %9 = icmp eq ptr %8, null
  br i1 %9, label %10, label %11

10:                                               ; preds = %1
  br label %41

11:                                               ; preds = %1
  %12 = load ptr, ptr %6, align 8
  call void @llvm.memset.p0.i64(ptr align 8 %12, i8 0, i64 176, i1 false)
  call void @llvm.memset.p0.i64(ptr align 8 %4, i8 0, i64 112, i1 false)
  %13 = getelementptr inbounds %struct.NVGparams, ptr %4, i32 0, i32 2
  store ptr @_ZL19glnvg__renderCreatePv, ptr %13, align 8
  %14 = getelementptr inbounds %struct.NVGparams, ptr %4, i32 0, i32 3
  store ptr @_ZL26glnvg__renderCreateTexturePviiiiPKh, ptr %14, align 8
  %15 = getelementptr inbounds %struct.NVGparams, ptr %4, i32 0, i32 4
  store ptr @_ZL26glnvg__renderDeleteTexturePvi, ptr %15, align 8
  %16 = getelementptr inbounds %struct.NVGparams, ptr %4, i32 0, i32 5
  store ptr @_ZL26glnvg__renderUpdateTexturePviiiiiPKh, ptr %16, align 8
  %17 = getelementptr inbounds %struct.NVGparams, ptr %4, i32 0, i32 6
  store ptr @_ZL27glnvg__renderGetTextureSizePviPiS0_, ptr %17, align 8
  %18 = getelementptr inbounds %struct.NVGparams, ptr %4, i32 0, i32 7
  store ptr @_ZL21glnvg__renderViewportPvfff, ptr %18, align 8
  %19 = getelementptr inbounds %struct.NVGparams, ptr %4, i32 0, i32 8
  store ptr @_ZL19glnvg__renderCancelPv, ptr %19, align 8
  %20 = getelementptr inbounds %struct.NVGparams, ptr %4, i32 0, i32 9
  store ptr @_ZL18glnvg__renderFlushPv, ptr %20, align 8
  %21 = getelementptr inbounds %struct.NVGparams, ptr %4, i32 0, i32 10
  store ptr @_ZL17glnvg__renderFillPvP8NVGpaint26NVGcompositeOperationStateP10NVGscissorfPKfPK7NVGpathi, ptr %21, align 8
  %22 = getelementptr inbounds %struct.NVGparams, ptr %4, i32 0, i32 11
  store ptr @_ZL19glnvg__renderStrokePvP8NVGpaint26NVGcompositeOperationStateP10NVGscissorffPK7NVGpathi, ptr %22, align 8
  %23 = getelementptr inbounds %struct.NVGparams, ptr %4, i32 0, i32 12
  store ptr @_ZL22glnvg__renderTrianglesPvP8NVGpaint26NVGcompositeOperationStateP10NVGscissorPK9NVGvertexi, ptr %23, align 8
  %24 = getelementptr inbounds %struct.NVGparams, ptr %4, i32 0, i32 13
  store ptr @_ZL19glnvg__renderDeletePv, ptr %24, align 8
  %25 = load ptr, ptr %6, align 8
  %26 = getelementptr inbounds %struct.NVGparams, ptr %4, i32 0, i32 0
  store ptr %25, ptr %26, align 8
  %27 = load i32, ptr %3, align 4
  %28 = and i32 %27, 1
  %29 = icmp ne i32 %28, 0
  %30 = select i1 %29, i32 1, i32 0
  %31 = getelementptr inbounds %struct.NVGparams, ptr %4, i32 0, i32 1
  store i32 %30, ptr %31, align 8
  %32 = load i32, ptr %3, align 4
  %33 = load ptr, ptr %6, align 8
  %34 = getelementptr inbounds %struct.GLNVGcontext, ptr %33, i32 0, i32 10
  store i32 %32, ptr %34, align 4
  %35 = call ptr @nvgCreateInternal(ptr noundef %4)
  store ptr %35, ptr %5, align 8
  %36 = load ptr, ptr %5, align 8
  %37 = icmp eq ptr %36, null
  br i1 %37, label %38, label %39

38:                                               ; preds = %11
  br label %41

39:                                               ; preds = %11
  %40 = load ptr, ptr %5, align 8
  store ptr %40, ptr %2, align 8
  br label %47

41:                                               ; preds = %38, %10
  %42 = load ptr, ptr %5, align 8
  %43 = icmp ne ptr %42, null
  br i1 %43, label %44, label %46

44:                                               ; preds = %41
  %45 = load ptr, ptr %5, align 8
  call void @nvgDeleteInternal(ptr noundef %45)
  br label %46

46:                                               ; preds = %44, %41
  store ptr null, ptr %2, align 8
  br label %47

47:                                               ; preds = %46, %39
  %48 = load ptr, ptr %2, align 8
  ret ptr %48
}