; Function Attrs: mustprogress uwtable
define hidden ptr @nvgCreateGL3(i32 noundef %0) local_unnamed_addr #3 {
  %2 = alloca %struct.NVGparams, align 8
  %calloc = tail call dereferenceable_or_null(176) ptr @calloc(i64 1, i64 176)
  %3 = icmp eq ptr %calloc, null
  br i1 %3, label %23, label %4

4:                                                ; preds = %1
  %5 = getelementptr inbounds i8, ptr %2, i64 8
  store i64 0, ptr %5, align 8
  %6 = getelementptr inbounds i8, ptr %2, i64 16
  store ptr @_ZL19glnvg__renderCreatePv, ptr %6, align 8
  %7 = getelementptr inbounds i8, ptr %2, i64 24
  store ptr @_ZL26glnvg__renderCreateTexturePviiiiPKh, ptr %7, align 8
  %8 = getelementptr inbounds i8, ptr %2, i64 32
  store ptr @_ZL26glnvg__renderDeleteTexturePvi, ptr %8, align 8
  %9 = getelementptr inbounds i8, ptr %2, i64 40
  store ptr @_ZL26glnvg__renderUpdateTexturePviiiiiPKh, ptr %9, align 8
  %10 = getelementptr inbounds i8, ptr %2, i64 48
  store ptr @_ZL27glnvg__renderGetTextureSizePviPiS0_, ptr %10, align 8
  %11 = getelementptr inbounds i8, ptr %2, i64 56
  store ptr @_ZL21glnvg__renderViewportPvfff, ptr %11, align 8
  %12 = getelementptr inbounds i8, ptr %2, i64 64
  store ptr @_ZL19glnvg__renderCancelPv, ptr %12, align 8
  %13 = getelementptr inbounds i8, ptr %2, i64 72
  store ptr @_ZL18glnvg__renderFlushPv, ptr %13, align 8
  %14 = getelementptr inbounds i8, ptr %2, i64 80
  store ptr @_ZL17glnvg__renderFillPvP8NVGpaint26NVGcompositeOperationStateP10NVGscissorfPKfPK7NVGpathi, ptr %14, align 8
  %15 = getelementptr inbounds i8, ptr %2, i64 88
  store ptr @_ZL19glnvg__renderStrokePvP8NVGpaint26NVGcompositeOperationStateP10NVGscissorffPK7NVGpathi, ptr %15, align 8
  %16 = getelementptr inbounds i8, ptr %2, i64 96
  store ptr @_ZL22glnvg__renderTrianglesPvP8NVGpaint26NVGcompositeOperationStateP10NVGscissorPK9NVGvertexi, ptr %16, align 8
  %17 = getelementptr inbounds i8, ptr %2, i64 104
  store ptr @_ZL19glnvg__renderDeletePv, ptr %17, align 8
  store ptr %calloc, ptr %2, align 8
  %18 = and i32 %0, 1
  %19 = getelementptr inbounds i8, ptr %2, i64 8
  store i32 %18, ptr %19, align 8
  %20 = getelementptr inbounds i8, ptr %calloc, i64 68
  store i32 %0, ptr %20, align 4
  %21 = call ptr @nvgCreateInternal(ptr noundef nonnull %2)
  %22 = icmp eq ptr %21, null
  br i1 %22, label %23, label %24

23:                                               ; preds = %1, %4
  br label %24

24:                                               ; preds = %4, %23
  %.0 = phi ptr [ null, %23 ], [ %21, %4 ]
  ret ptr %.0
}